; Function Attrs: null_pointer_is_valid sspstrong uwtable
define hidden i32 @stream_get_frag_length(ptr noundef readonly captures(address_is_null) %0) local_unnamed_addr #0 {
  %.not = icmp eq ptr %0, null
  br i1 %.not, label %2, label %3

2:                                                ; preds = %1
  tail call void (ptr, ...) @proto_report_dissector_bug(ptr noundef nonnull @.str, ptr noundef nonnull @.str.1, i32 noundef 402, ptr noundef nonnull @.str.5) #8
  unreachable

3:                                                ; preds = %1
  %4 = load i32, ptr %0, align 8
  ret i32 %4
}